target datalayout = "e-m:e-p270:32:32-p271:32:32-p272:64:64-i64:64-i128:128-f80:128-n8:16:32:64-S128"
target triple = "x86_64-pc-linux-gnu"

%"struct.faiss::Index" = type <{ ptr, i32, [4 x i8], i64, i8, i8, [2 x i8], i32, float, [4 x i8] }>

; Function Attrs: mustprogress uwtable
define noundef ptr @_ZN5faiss6ivflib17extract_index_ivfEPNS_5IndexE(ptr noundef %0) #4 {
  %2 = alloca ptr, align 8
  store ptr %0, ptr %2, align 8
  %3 = load ptr, ptr %2, align 8
  %4 = call noundef ptr @_ZN5faiss6ivflib17extract_index_ivfEPKNS_5IndexE(ptr noundef %3)
  ret ptr %4
}

; Function Attrs: mustprogress uwtable
define void @_ZN5faiss6ivflib10merge_intoEPNS_5IndexES2_b(ptr noundef %0, ptr noundef %1, i1 noundef zeroext %2) #4 {
  %4 = alloca ptr, align 8
  %5 = alloca ptr, align 8
  %6 = alloca i8, align 1
  %7 = alloca ptr, align 8
  %8 = alloca ptr, align 8
  store ptr %0, ptr %4, align 8
  store ptr %1, ptr %5, align 8
  %9 = zext i1 %2 to i8
  store i8 %9, ptr %6, align 1
  %10 = load ptr, ptr %4, align 8
  %11 = load ptr, ptr %5, align 8
  call void @_ZN5faiss6ivflib26check_compatible_for_mergeEPKNS_5IndexES3_(ptr noundef %10, ptr noundef %11)
  %12 = load ptr, ptr %4, align 8
  %13 = call noundef ptr @_ZN5faiss6ivflib17extract_index_ivfEPNS_5IndexE(ptr noundef %12)
  store ptr %13, ptr %7, align 8
  %14 = load ptr, ptr %5, align 8
  %15 = call noundef ptr @_ZN5faiss6ivflib17extract_index_ivfEPNS_5IndexE(ptr noundef %14)
  store ptr %15, ptr %8, align 8
  %16 = load ptr, ptr %7, align 8
  %17 = load ptr, ptr %8, align 8
  %18 = load i8, ptr %6, align 1
  %19 = trunc i8 %18 to i1
  br i1 %19, label %20, label %24

20:                                               ; preds = %3
  %21 = load ptr, ptr %7, align 8
  %22 = getelementptr inbounds %"struct.faiss::Index", ptr %21, i32 0, i32 3
  %23 = load i64, ptr %22, align 8
  br label %25

24:                                               ; preds = %3
  br label %25

25:                                               ; preds = %24, %20
  %26 = phi i64 [ %23, %20 ], [ 0, %24 ]
  %27 = load ptr, ptr %16, align 8
  %28 = getelementptr inbounds ptr, ptr %27, i64 20
  %29 = load ptr, ptr %28, align 8
  call void %29(ptr noundef nonnull align 8 dereferenceable(257) %16, ptr noundef nonnull align 8 dereferenceable(36) %17, i64 noundef %26)
  %30 = load ptr, ptr %7, align 8
  %31 = getelementptr inbounds %"struct.faiss::Index", ptr %30, i32 0, i32 3
  %32 = load i64, ptr %31, align 8
  %33 = load ptr, ptr %4, align 8
  %34 = getelementptr inbounds %"struct.faiss::Index", ptr %33, i32 0, i32 3
  store i64 %32, ptr %34, align 8
  %35 = load ptr, ptr %8, align 8
  %36 = getelementptr inbounds %"struct.faiss::Index", ptr %35, i32 0, i32 3
  %37 = load i64, ptr %36, align 8
  %38 = load ptr, ptr %5, align 8
  %39 = getelementptr inbounds %"struct.faiss::Index", ptr %38, i32 0, i32 3
  store i64 %37, ptr %39, align 8
  ret void
}