; Function Attrs: mustprogress uwtable
define void @_ZN5faiss6ivflib10merge_intoEPNS_5IndexES2_b(ptr noundef %0, ptr noundef %1, i1 noundef zeroext %2) local_unnamed_addr #3 {
  tail call void @_ZN5faiss6ivflib26check_compatible_for_mergeEPKNS_5IndexES3_(ptr noundef %0, ptr noundef %1)
  %4 = tail call noundef ptr @_ZN5faiss6ivflib17extract_index_ivfEPKNS_5IndexE(ptr noundef %0)
  %5 = tail call noundef ptr @_ZN5faiss6ivflib17extract_index_ivfEPKNS_5IndexE(ptr noundef %1)
  br i1 %2, label %6, label %9

6:                                                ; preds = %3
  %7 = getelementptr inbounds i8, ptr %4, i64 16
  %8 = load i64, ptr %7, align 8
  br label %9

9:                                                ; preds = %3, %6
  %10 = phi i64 [ %8, %6 ], [ 0, %3 ]
  %11 = load ptr, ptr %4, align 8
  %12 = getelementptr inbounds i8, ptr %11, i64 160
  %13 = load ptr, ptr %12, align 8
  tail call void %13(ptr noundef nonnull align 8 dereferenceable(257) %4, ptr noundef nonnull align 8 dereferenceable(36) %5, i64 noundef %10)
  %14 = getelementptr inbounds i8, ptr %4, i64 16
  %15 = load i64, ptr %14, align 8
  %16 = getelementptr inbounds i8, ptr %0, i64 16
  store i64 %15, ptr %16, align 8
  %17 = getelementptr inbounds i8, ptr %5, i64 16
  %18 = load i64, ptr %17, align 8
  %19 = getelementptr inbounds i8, ptr %1, i64 16
  store i64 %18, ptr %19, align 8
  ret void
}